; Function Attrs: nounwind uwtable
define range(i32 0, 2) i32 @ossl_quic_wire_decode_frame_max_stream_data(ptr noundef captures(none) %0, ptr noundef writeonly captures(none) %1, ptr noundef writeonly captures(none) %2) local_unnamed_addr #2 {
  %4 = getelementptr i8, ptr %0, i64 8
  %.val.i.i.i = load i64, ptr %4, align 8, !tbaa !52
  %5 = icmp eq i64 %.val.i.i.i, 0
  br i1 %5, label %expect_frame_header.exit.thread, label %6

6:                                                ; preds = %3
  %7 = load ptr, ptr %0, align 8, !tbaa !54
  %8 = load i8, ptr %7, align 1, !tbaa !55
  %9 = lshr i8 %8, 6
  %10 = zext nneg i8 %9 to i32
  %11 = shl nuw nsw i32 1, %10
  %12 = zext nneg i32 %11 to i64
  %13 = icmp ult i64 %.val.i.i.i, %12
  br i1 %13, label %expect_frame_header.exit.thread, label %expect_frame_header.exit

expect_frame_header.exit:                         ; preds = %6
  %14 = tail call i64 @ossl_quic_vlint_decode_unchecked(ptr noundef nonnull %7) #12
  %15 = load ptr, ptr %0, align 8, !tbaa !54
  %16 = getelementptr inbounds nuw i8, ptr %15, i64 %12
  store ptr %16, ptr %0, align 8, !tbaa !54
  %17 = load i64, ptr %4, align 8, !tbaa !52
  %18 = sub i64 %17, %12
  store i64 %18, ptr %4, align 8, !tbaa !52
  %.not2.i.not = icmp ne i64 %14, 17
  %19 = icmp eq i64 %17, %12
  %or.cond = select i1 %.not2.i.not, i1 true, i1 %19
  br i1 %or.cond, label %expect_frame_header.exit.thread, label %20

20:                                               ; preds = %expect_frame_header.exit
  %21 = load i8, ptr %16, align 1, !tbaa !55
  %22 = lshr i8 %21, 6
  %23 = zext nneg i8 %22 to i32
  %24 = shl nuw nsw i32 1, %23
  %25 = zext nneg i32 %24 to i64
  %26 = icmp ult i64 %18, %25
  br i1 %26, label %expect_frame_header.exit.thread, label %27

27:                                               ; preds = %20
  %28 = tail call i64 @ossl_quic_vlint_decode_unchecked(ptr noundef nonnull %16) #12
  store i64 %28, ptr %1, align 8, !tbaa !56
  %29 = load ptr, ptr %0, align 8, !tbaa !54
  %30 = getelementptr inbounds nuw i8, ptr %29, i64 %25
  store ptr %30, ptr %0, align 8, !tbaa !54
  %31 = load i64, ptr %4, align 8, !tbaa !52
  %32 = sub i64 %31, %25
  store i64 %32, ptr %4, align 8, !tbaa !52
  %33 = icmp eq i64 %31, %25
  br i1 %33, label %expect_frame_header.exit.thread, label %34

34:                                               ; preds = %27
  %35 = load i8, ptr %30, align 1, !tbaa !55
  %36 = lshr i8 %35, 6
  %37 = zext nneg i8 %36 to i32
  %38 = shl nuw nsw i32 1, %37
  %39 = zext nneg i32 %38 to i64
  %40 = icmp ult i64 %32, %39
  br i1 %40, label %expect_frame_header.exit.thread, label %PACKET_get_quic_vlint.exit10

PACKET_get_quic_vlint.exit10:                     ; preds = %34
  %41 = tail call i64 @ossl_quic_vlint_decode_unchecked(ptr noundef nonnull %30) #12
  store i64 %41, ptr %2, align 8, !tbaa !56
  %42 = load ptr, ptr %0, align 8, !tbaa !54
  %43 = getelementptr inbounds nuw i8, ptr %42, i64 %39
  store ptr %43, ptr %0, align 8, !tbaa !54
  %44 = load i64, ptr %4, align 8, !tbaa !52
  %45 = sub i64 %44, %39
  store i64 %45, ptr %4, align 8, !tbaa !52
  br label %expect_frame_header.exit.thread

expect_frame_header.exit.thread:                  ; preds = %20, %6, %3, %PACKET_get_quic_vlint.exit10, %27, %34, %expect_frame_header.exit
  %.0 = phi i32 [ 0, %expect_frame_header.exit ], [ 1, %PACKET_get_quic_vlint.exit10 ], [ 0, %27 ], [ 0, %34 ], [ 0, %3 ], [ 0, %6 ], [ 0, %20 ]
  ret i32 %.0
}